target datalayout = "e-m:e-p270:32:32-p271:32:32-p272:64:64-i64:64-i128:128-f80:128-n8:16:32:64-S128"
target triple = "x86_64-pc-linux-gnu"

%struct._object = type { %union.anon, ptr }
%union.anon = type { i64 }
%struct.stringio = type { %struct._object, ptr, i64, i64, i64, i32, ptr, i8, i8, i8, i8, ptr, ptr, ptr, ptr, ptr, ptr }

@PyExc_ValueError = external global ptr, align 8
@.str.2 = private unnamed_addr constant [38 x i8] c"I/O operation on uninitialized object\00", align 1
@.str.3 = private unnamed_addr constant [29 x i8] c"I/O operation on closed file\00", align 1
@.str.8 = private unnamed_addr constant [5 x i8] c"read\00", align 1

; Function Attrs: nounwind uwtable
define internal ptr @_io_StringIO_read_impl(ptr noundef %0, i64 noundef %1) #0 {
  %3 = alloca ptr, align 8
  %4 = alloca ptr, align 8
  %5 = alloca i64, align 8
  %6 = alloca i64, align 8
  %7 = alloca ptr, align 8
  %8 = alloca i32, align 4
  %9 = alloca ptr, align 8
  store ptr %0, ptr %4, align 8, !tbaa !4
  store i64 %1, ptr %5, align 8, !tbaa !43
  call void @llvm.lifetime.start.p0(i64 8, ptr %6) #7
  call void @llvm.lifetime.start.p0(i64 8, ptr %7) #7
  %10 = load ptr, ptr %4, align 8, !tbaa !4
  %11 = getelementptr inbounds nuw %struct.stringio, ptr %10, i32 0, i32 7
  %12 = load i8, ptr %11, align 8, !tbaa !10
  %13 = sext i8 %12 to i32
  %14 = icmp sle i32 %13, 0
  br i1 %14, label %15, label %17

15:                                               ; preds = %2
  %16 = load ptr, ptr @PyExc_ValueError, align 8, !tbaa !37
  call void @PyErr_SetString(ptr noundef %16, ptr noundef @.str.2)
  store ptr null, ptr %3, align 8
  store i32 1, ptr %8, align 4
  br label %88

17:                                               ; preds = %2
  %18 = load ptr, ptr %4, align 8, !tbaa !4
  %19 = getelementptr inbounds nuw %struct.stringio, ptr %18, i32 0, i32 8
  %20 = load i8, ptr %19, align 1, !tbaa !38
  %21 = icmp ne i8 %20, 0
  br i1 %21, label %22, label %24

22:                                               ; preds = %17
  %23 = load ptr, ptr @PyExc_ValueError, align 8, !tbaa !37
  call void @PyErr_SetString(ptr noundef %23, ptr noundef @.str.3)
  store ptr null, ptr %3, align 8
  store i32 1, ptr %8, align 4
  br label %88

24:                                               ; preds = %17
  %25 = load ptr, ptr %4, align 8, !tbaa !4
  %26 = getelementptr inbounds nuw %struct.stringio, ptr %25, i32 0, i32 3
  %27 = load i64, ptr %26, align 8, !tbaa !53
  %28 = load ptr, ptr %4, align 8, !tbaa !4
  %29 = getelementptr inbounds nuw %struct.stringio, ptr %28, i32 0, i32 2
  %30 = load i64, ptr %29, align 8, !tbaa !52
  %31 = sub i64 %27, %30
  store i64 %31, ptr %6, align 8, !tbaa !43
  %32 = load i64, ptr %5, align 8, !tbaa !43
  %33 = icmp slt i64 %32, 0
  br i1 %33, label %38, label %34

34:                                               ; preds = %24
  %35 = load i64, ptr %5, align 8, !tbaa !43
  %36 = load i64, ptr %6, align 8, !tbaa !43
  %37 = icmp sgt i64 %35, %36
  br i1 %37, label %38, label %44

38:                                               ; preds = %34, %24
  %39 = load i64, ptr %6, align 8, !tbaa !43
  store i64 %39, ptr %5, align 8, !tbaa !43
  %40 = load i64, ptr %5, align 8, !tbaa !43
  %41 = icmp slt i64 %40, 0
  br i1 %41, label %42, label %43

42:                                               ; preds = %38
  store i64 0, ptr %5, align 8, !tbaa !43
  br label %43

43:                                               ; preds = %42, %38
  br label %44

44:                                               ; preds = %43, %34
  %45 = load ptr, ptr %4, align 8, !tbaa !4
  %46 = getelementptr inbounds nuw %struct.stringio, ptr %45, i32 0, i32 5
  %47 = load i32, ptr %46, align 8, !tbaa !51
  %48 = icmp eq i32 %47, 2
  br i1 %48, label %49, label %67

49:                                               ; preds = %44
  %50 = load ptr, ptr %4, align 8, !tbaa !4
  %51 = getelementptr inbounds nuw %struct.stringio, ptr %50, i32 0, i32 2
  %52 = load i64, ptr %51, align 8, !tbaa !52
  %53 = icmp eq i64 %52, 0
  br i1 %53, label %54, label %67

54:                                               ; preds = %49
  %55 = load i64, ptr %5, align 8, !tbaa !43
  %56 = load i64, ptr %6, align 8, !tbaa !43
  %57 = icmp eq i64 %55, %56
  br i1 %57, label %58, label %67

58:                                               ; preds = %54
  call void @llvm.lifetime.start.p0(i64 8, ptr %9) #7
  %59 = load ptr, ptr %4, align 8, !tbaa !4
  %60 = call ptr @make_intermediate(ptr noundef %59)
  store ptr %60, ptr %9, align 8, !tbaa !37
  %61 = load ptr, ptr %4, align 8, !tbaa !4
  %62 = getelementptr inbounds nuw %struct.stringio, ptr %61, i32 0, i32 3
  %63 = load i64, ptr %62, align 8, !tbaa !53
  %64 = load ptr, ptr %4, align 8, !tbaa !4
  %65 = getelementptr inbounds nuw %struct.stringio, ptr %64, i32 0, i32 2
  store i64 %63, ptr %65, align 8, !tbaa !52
  %66 = load ptr, ptr %9, align 8, !tbaa !37
  store ptr %66, ptr %3, align 8
  store i32 1, ptr %8, align 4
  call void @llvm.lifetime.end.p0(i64 8, ptr %9) #7
  br label %88

67:                                               ; preds = %54, %49, %44
  %68 = load ptr, ptr %4, align 8, !tbaa !4
  %69 = call i32 @realize(ptr noundef %68)
  %70 = icmp slt i32 %69, 0
  br i1 %70, label %71, label %72

71:                                               ; preds = %67
  store ptr null, ptr %3, align 8
  store i32 1, ptr %8, align 4
  br label %88

72:                                               ; preds = %67
  %73 = load ptr, ptr %4, align 8, !tbaa !4
  %74 = getelementptr inbounds nuw %struct.stringio, ptr %73, i32 0, i32 1
  %75 = load ptr, ptr %74, align 8, !tbaa !19
  %76 = load ptr, ptr %4, align 8, !tbaa !4
  %77 = getelementptr inbounds nuw %struct.stringio, ptr %76, i32 0, i32 2
  %78 = load i64, ptr %77, align 8, !tbaa !52
  %79 = getelementptr i32, ptr %75, i64 %78
  store ptr %79, ptr %7, align 8, !tbaa !54
  %80 = load i64, ptr %5, align 8, !tbaa !43
  %81 = load ptr, ptr %4, align 8, !tbaa !4
  %82 = getelementptr inbounds nuw %struct.stringio, ptr %81, i32 0, i32 2
  %83 = load i64, ptr %82, align 8, !tbaa !52
  %84 = add i64 %83, %80
  store i64 %84, ptr %82, align 8, !tbaa !52
  %85 = load ptr, ptr %7, align 8, !tbaa !54
  %86 = load i64, ptr %5, align 8, !tbaa !43
  %87 = call ptr @PyUnicode_FromKindAndData(i32 noundef 4, ptr noundef %85, i64 noundef %86)
  store ptr %87, ptr %3, align 8
  store i32 1, ptr %8, align 4
  br label %88

88:                                               ; preds = %72, %71, %58, %22, %15
  call void @llvm.lifetime.end.p0(i64 8, ptr %7) #7
  call void @llvm.lifetime.end.p0(i64 8, ptr %6) #7
  %89 = load ptr, ptr %3, align 8
  ret ptr %89
}

; Function Attrs: nounwind uwtable
define internal ptr @_io_StringIO_read(ptr noundef %0, ptr noundef %1, i64 noundef %2) #0 {
  %4 = alloca ptr, align 8
  %5 = alloca ptr, align 8
  %6 = alloca i64, align 8
  %7 = alloca ptr, align 8
  %8 = alloca i64, align 8
  store ptr %0, ptr %4, align 8, !tbaa !37
  store ptr %1, ptr %5, align 8, !tbaa !35
  store i64 %2, ptr %6, align 8, !tbaa !43
  call void @llvm.lifetime.start.p0(i64 8, ptr %7) #7
  store ptr null, ptr %7, align 8, !tbaa !37
  call void @llvm.lifetime.start.p0(i64 8, ptr %8) #7
  store i64 -1, ptr %8, align 8, !tbaa !43
  %9 = load i64, ptr %6, align 8, !tbaa !43
  %10 = icmp sle i64 0, %9
  br i1 %10, label %11, label %14

11:                                               ; preds = %3
  %12 = load i64, ptr %6, align 8, !tbaa !43
  %13 = icmp sle i64 %12, 1
  br i1 %13, label %19, label %14

14:                                               ; preds = %11, %3
  %15 = load i64, ptr %6, align 8, !tbaa !43
  %16 = call i32 @_PyArg_CheckPositional(ptr noundef @.str.8, i64 noundef %15, i64 noundef 0, i64 noundef 1)
  %17 = icmp ne i32 %16, 0
  br i1 %17, label %19, label %18

18:                                               ; preds = %14
  br label %35

19:                                               ; preds = %14, %11
  %20 = load i64, ptr %6, align 8, !tbaa !43
  %21 = icmp slt i64 %20, 1
  br i1 %21, label %22, label %23

22:                                               ; preds = %19
  br label %31

23:                                               ; preds = %19
  %24 = load ptr, ptr %5, align 8, !tbaa !35
  %25 = getelementptr ptr, ptr %24, i64 0
  %26 = load ptr, ptr %25, align 8, !tbaa !37
  %27 = call i32 @_Py_convert_optional_to_ssize_t(ptr noundef %26, ptr noundef %8)
  %28 = icmp ne i32 %27, 0
  br i1 %28, label %30, label %29

29:                                               ; preds = %23
  br label %35

30:                                               ; preds = %23
  br label %31

31:                                               ; preds = %30, %22
  %32 = load ptr, ptr %4, align 8, !tbaa !37
  %33 = load i64, ptr %8, align 8, !tbaa !43
  %34 = call ptr @_io_StringIO_read_impl(ptr noundef %32, i64 noundef %33)
  store ptr %34, ptr %7, align 8, !tbaa !37
  br label %35

35:                                               ; preds = %31, %29, %18
  %36 = load ptr, ptr %7, align 8, !tbaa !37
  call void @llvm.lifetime.end.p0(i64 8, ptr %8) #7
  call void @llvm.lifetime.end.p0(i64 8, ptr %7) #7
  ret ptr %36
}