; Function Attrs: nounwind uwtable
define internal ptr @_io_StringIO_read(ptr noundef captures(none) %0, ptr noundef readonly captures(none) %1, i64 noundef %2) #0 {
  %4 = alloca i64, align 8
  call void @llvm.lifetime.start.p0(i64 8, ptr nonnull %4) #6
  store i64 -1, ptr %4, align 8, !tbaa !64
  %or.cond = icmp ult i64 %2, 2
  br i1 %or.cond, label %7, label %5

5:                                                ; preds = %3
  %6 = tail call i32 @_PyArg_CheckPositional(ptr noundef nonnull @.str.8, i64 noundef %2, i64 noundef 0, i64 noundef 1) #6
  %.not = icmp eq i32 %6, 0
  br i1 %.not, label %_io_StringIO_read_impl.exit, label %7

7:                                                ; preds = %3, %5
  %8 = icmp slt i64 %2, 1
  br i1 %8, label %12, label %9

9:                                                ; preds = %7
  %10 = load ptr, ptr %1, align 8, !tbaa !37
  %11 = call i32 @_Py_convert_optional_to_ssize_t(ptr noundef %10, ptr noundef nonnull %4) #6
  %.not7 = icmp eq i32 %11, 0
  br i1 %.not7, label %_io_StringIO_read_impl.exit, label %._crit_edge

._crit_edge:                                      ; preds = %9
  %.pre = load i64, ptr %4, align 8, !tbaa !64
  br label %12

12:                                               ; preds = %._crit_edge, %7
  %13 = phi i64 [ %.pre, %._crit_edge ], [ -1, %7 ]
  %14 = getelementptr inbounds nuw i8, ptr %0, i64 64
  %15 = load i8, ptr %14, align 8, !tbaa !14
  %16 = icmp slt i8 %15, 1
  br i1 %16, label %17, label %19

17:                                               ; preds = %12
  %18 = load ptr, ptr @PyExc_ValueError, align 8, !tbaa !37
  call void @PyErr_SetString(ptr noundef %18, ptr noundef nonnull @.str.2) #6
  br label %_io_StringIO_read_impl.exit

19:                                               ; preds = %12
  %20 = getelementptr inbounds nuw i8, ptr %0, i64 65
  %21 = load i8, ptr %20, align 1, !tbaa !38
  %.not.i = icmp eq i8 %21, 0
  br i1 %.not.i, label %24, label %22

22:                                               ; preds = %19
  %23 = load ptr, ptr @PyExc_ValueError, align 8, !tbaa !37
  call void @PyErr_SetString(ptr noundef %23, ptr noundef nonnull @.str.3) #6
  br label %_io_StringIO_read_impl.exit

24:                                               ; preds = %19
  %25 = getelementptr inbounds nuw i8, ptr %0, i64 32
  %26 = load i64, ptr %25, align 8, !tbaa !43
  %27 = getelementptr inbounds nuw i8, ptr %0, i64 24
  %28 = load i64, ptr %27, align 8, !tbaa !42
  %29 = sub i64 %26, %28
  %30 = icmp slt i64 %13, 0
  %31 = icmp sgt i64 %13, %29
  %or.cond.i = select i1 %30, i1 true, i1 %31
  %spec.store.select.i = call i64 @llvm.smax.i64(i64 %29, i64 0)
  %.024.i = select i1 %or.cond.i, i64 %spec.store.select.i, i64 %13
  %32 = getelementptr inbounds nuw i8, ptr %0, i64 48
  %33 = load i32, ptr %32, align 8, !tbaa !62
  %34 = icmp eq i32 %33, 2
  br i1 %34, label %35, label %41

35:                                               ; preds = %24
  %36 = icmp eq i64 %28, 0
  %37 = icmp eq i64 %.024.i, %29
  %or.cond26.i = select i1 %36, i1 %37, i1 false
  br i1 %or.cond26.i, label %38, label %41

38:                                               ; preds = %35
  %39 = call fastcc ptr @make_intermediate(ptr noundef nonnull %0)
  %40 = load i64, ptr %25, align 8, !tbaa !43
  store i64 %40, ptr %27, align 8, !tbaa !42
  br label %_io_StringIO_read_impl.exit

41:                                               ; preds = %35, %24
  %42 = call fastcc i32 @realize(ptr noundef nonnull %0)
  %43 = icmp slt i32 %42, 0
  br i1 %43, label %_io_StringIO_read_impl.exit, label %44

44:                                               ; preds = %41
  %45 = getelementptr inbounds nuw i8, ptr %0, i64 16
  %46 = load ptr, ptr %45, align 8, !tbaa !21
  %47 = load i64, ptr %27, align 8, !tbaa !42
  %48 = getelementptr i32, ptr %46, i64 %47
  %49 = add i64 %47, %.024.i
  store i64 %49, ptr %27, align 8, !tbaa !42
  %50 = call ptr @PyUnicode_FromKindAndData(i32 noundef 4, ptr noundef %48, i64 noundef %.024.i) #6
  br label %_io_StringIO_read_impl.exit

_io_StringIO_read_impl.exit:                      ; preds = %44, %41, %38, %22, %17, %9, %5
  %.0 = phi ptr [ null, %9 ], [ null, %5 ], [ null, %17 ], [ null, %22 ], [ %39, %38 ], [ %50, %44 ], [ null, %41 ]
  call void @llvm.lifetime.end.p0(i64 8, ptr nonnull %4) #6
  ret ptr %.0
}